target datalayout = "e-m:e-p270:32:32-p271:32:32-p272:64:64-i64:64-i128:128-f80:128-n8:16:32:64-S128"
target triple = "x86_64-unknown-linux-gnu"

%"class.cvc5::internal::LogicInfo" = type { %"class.std::__cxx11::basic_string", %"class.std::vector", i64, i8, i8, i8, i8, i8, i8, i8, i8 }
%"class.std::__cxx11::basic_string" = type { %"struct.std::__cxx11::basic_string<char>::_Alloc_hider", i64, %union.anon }
%"struct.std::__cxx11::basic_string<char>::_Alloc_hider" = type { ptr }
%union.anon = type { i64, [8 x i8] }
%"class.std::vector" = type { %"struct.std::_Bvector_base" }
%"struct.std::_Bvector_base" = type { %"struct.std::_Bvector_base<std::allocator<bool>>::_Bvector_impl" }
%"struct.std::_Bvector_base<std::allocator<bool>>::_Bvector_impl" = type { %"struct.std::_Bvector_base<std::allocator<bool>>::_Bvector_impl_data" }
%"struct.std::_Bvector_base<std::allocator<bool>>::_Bvector_impl_data" = type { %"struct.std::_Bit_iterator", %"struct.std::_Bit_iterator", ptr }
%"struct.std::_Bit_iterator" = type { %"struct.std::_Bit_iterator_base.base", [4 x i8] }
%"struct.std::_Bit_iterator_base.base" = type <{ ptr, i32 }>

@.str.1 = private unnamed_addr constant [9 x i8] c"d_locked\00", align 1
@.str.2 = private unnamed_addr constant [6 x i8] c"*this\00", align 1
@.str.3 = private unnamed_addr constant [55 x i8] c"This LogicInfo isn't locked yet, and cannot be queried\00", align 1
@_ZTIN4cvc58internal24IllegalArgumentExceptionE = linkonce_odr constant { ptr, ptr, ptr } { ptr getelementptr inbounds (ptr, ptr @_ZTVN10__cxxabiv120__si_class_type_infoE, i64 2), ptr @_ZTSN4cvc58internal24IllegalArgumentExceptionE, ptr @_ZTIN4cvc58internal9ExceptionE }, comdat, align 8
@__PRETTY_FUNCTION__._ZNK4cvc58internal9LogicInfo15areIntegersUsedEv = private unnamed_addr constant [56 x i8] c"bool cvc5::internal::LogicInfo::areIntegersUsed() const\00", align 1
@.str.4 = private unnamed_addr constant [38 x i8] c"isTheoryEnabled(theory::THEORY_ARITH)\00", align 1
@.str.5 = private unnamed_addr constant [76 x i8] c"Arithmetic not used in this LogicInfo; cannot ask whether integers are used\00", align 1

; Function Attrs: mustprogress uwtable
define noundef zeroext i1 @_ZNK4cvc58internal9LogicInfo15areIntegersUsedEv(ptr noundef nonnull align 8 dereferenceable(88) %this) #4 align 2 personality ptr @__gxx_personality_v0 {
entry:
  %this.addr = alloca ptr, align 8
  %ref.tmp = alloca %"class.std::__cxx11::basic_string", align 8
  %exn.slot = alloca ptr, align 8
  %ehselector.slot = alloca i32, align 4
  %cleanup.isactive = alloca i1, align 1
  %ref.tmp9 = alloca %"class.std::__cxx11::basic_string", align 8
  %cleanup.isactive15 = alloca i1, align 1
  store ptr %this, ptr %this.addr, align 8
  %this1 = load ptr, ptr %this.addr, align 8
  br label %do.body

do.body:                                          ; preds = %entry
  %d_locked = getelementptr inbounds %"class.cvc5::internal::LogicInfo", ptr %this1, i32 0, i32 10
  %0 = load i8, ptr %d_locked, align 1
  %tobool = trunc i8 %0 to i1
  %lnot = xor i1 %tobool, true
  br i1 %lnot, label %if.then, label %if.end

if.then:                                          ; preds = %do.body
  store i1 true, ptr %cleanup.isactive, align 1
  %exception = call ptr @__cxa_allocate_exception(i64 40) #3
  invoke void (ptr, ptr, ...) @_ZN4cvc58internal24IllegalArgumentException14formatVariadicB5cxx11EPKcz(ptr sret(%"class.std::__cxx11::basic_string") align 8 %ref.tmp, ptr noundef @.str.3)
          to label %invoke.cont unwind label %lpad

invoke.cont:                                      ; preds = %if.then
  %call = call noundef ptr @_ZNKSt7__cxx1112basic_stringIcSt11char_traitsIcESaIcEE5c_strEv(ptr noundef nonnull align 8 dereferenceable(32) %ref.tmp) #3
  invoke void @_ZN4cvc58internal24IllegalArgumentExceptionC2EPKcS3_S3_S3_(ptr noundef nonnull align 8 dereferenceable(40) %exception, ptr noundef @.str.1, ptr noundef @.str.2, ptr noundef @__PRETTY_FUNCTION__._ZNK4cvc58internal9LogicInfo15areIntegersUsedEv, ptr noundef %call)
          to label %invoke.cont3 unwind label %lpad2

invoke.cont3:                                     ; preds = %invoke.cont
  store i1 false, ptr %cleanup.isactive, align 1
  invoke void @__cxa_throw(ptr %exception, ptr @_ZTIN4cvc58internal24IllegalArgumentExceptionE, ptr @_ZN4cvc58internal24IllegalArgumentExceptionD2Ev) #14
          to label %unreachable unwind label %lpad2

lpad:                                             ; preds = %if.then
  %1 = landingpad { ptr, i32 }
          cleanup
  %2 = extractvalue { ptr, i32 } %1, 0
  store ptr %2, ptr %exn.slot, align 8
  %3 = extractvalue { ptr, i32 } %1, 1
  store i32 %3, ptr %ehselector.slot, align 4
  br label %ehcleanup

lpad2:                                            ; preds = %invoke.cont3, %invoke.cont
  %4 = landingpad { ptr, i32 }
          cleanup
  %5 = extractvalue { ptr, i32 } %4, 0
  store ptr %5, ptr %exn.slot, align 8
  %6 = extractvalue { ptr, i32 } %4, 1
  store i32 %6, ptr %ehselector.slot, align 4
  call void @_ZNSt7__cxx1112basic_stringIcSt11char_traitsIcESaIcEED1Ev(ptr noundef nonnull align 8 dereferenceable(32) %ref.tmp) #3
  br label %ehcleanup

ehcleanup:                                        ; preds = %lpad2, %lpad
  %cleanup.is_active = load i1, ptr %cleanup.isactive, align 1
  br i1 %cleanup.is_active, label %cleanup.action, label %cleanup.done

cleanup.action:                                   ; preds = %ehcleanup
  call void @__cxa_free_exception(ptr %exception) #3
  br label %cleanup.done

cleanup.done:                                     ; preds = %cleanup.action, %ehcleanup
  br label %eh.resume

if.end:                                           ; preds = %do.body
  br label %do.end

do.end:                                           ; preds = %if.end
  br label %do.body4

do.body4:                                         ; preds = %do.end
  %call5 = call noundef zeroext i1 @_ZNK4cvc58internal9LogicInfo15isTheoryEnabledENS0_6theory8TheoryIdE(ptr noundef nonnull align 8 dereferenceable(88) %this1, i32 noundef 3)
  %lnot6 = xor i1 %call5, true
  br i1 %lnot6, label %if.then7, label %if.end21

if.then7:                                         ; preds = %do.body4
  store i1 true, ptr %cleanup.isactive15, align 1
  %exception8 = call ptr @__cxa_allocate_exception(i64 40) #3
  invoke void (ptr, ptr, ...) @_ZN4cvc58internal24IllegalArgumentException14formatVariadicB5cxx11EPKcz(ptr sret(%"class.std::__cxx11::basic_string") align 8 %ref.tmp9, ptr noundef @.str.5)
          to label %invoke.cont11 unwind label %lpad10

invoke.cont11:                                    ; preds = %if.then7
  %call12 = call noundef ptr @_ZNKSt7__cxx1112basic_stringIcSt11char_traitsIcESaIcEE5c_strEv(ptr noundef nonnull align 8 dereferenceable(32) %ref.tmp9) #3
  invoke void @_ZN4cvc58internal24IllegalArgumentExceptionC2EPKcS3_S3_S3_(ptr noundef nonnull align 8 dereferenceable(40) %exception8, ptr noundef @.str.4, ptr noundef @.str.2, ptr noundef @__PRETTY_FUNCTION__._ZNK4cvc58internal9LogicInfo15areIntegersUsedEv, ptr noundef %call12)
          to label %invoke.cont14 unwind label %lpad13

invoke.cont14:                                    ; preds = %invoke.cont11
  store i1 false, ptr %cleanup.isactive15, align 1
  invoke void @__cxa_throw(ptr %exception8, ptr @_ZTIN4cvc58internal24IllegalArgumentExceptionE, ptr @_ZN4cvc58internal24IllegalArgumentExceptionD2Ev) #14
          to label %unreachable unwind label %lpad13

lpad10:                                           ; preds = %if.then7
  %7 = landingpad { ptr, i32 }
          cleanup
  %8 = extractvalue { ptr, i32 } %7, 0
  store ptr %8, ptr %exn.slot, align 8
  %9 = extractvalue { ptr, i32 } %7, 1
  store i32 %9, ptr %ehselector.slot, align 4
  br label %ehcleanup17

lpad13:                                           ; preds = %invoke.cont14, %invoke.cont11
  %10 = landingpad { ptr, i32 }
          cleanup
  %11 = extractvalue { ptr, i32 } %10, 0
  store ptr %11, ptr %exn.slot, align 8
  %12 = extractvalue { ptr, i32 } %10, 1
  store i32 %12, ptr %ehselector.slot, align 4
  call void @_ZNSt7__cxx1112basic_stringIcSt11char_traitsIcESaIcEED1Ev(ptr noundef nonnull align 8 dereferenceable(32) %ref.tmp9) #3
  br label %ehcleanup17

ehcleanup17:                                      ; preds = %lpad13, %lpad10
  %cleanup.is_active18 = load i1, ptr %cleanup.isactive15, align 1
  br i1 %cleanup.is_active18, label %cleanup.action19, label %cleanup.done20

cleanup.action19:                                 ; preds = %ehcleanup17
  call void @__cxa_free_exception(ptr %exception8) #3
  br label %cleanup.done20

cleanup.done20:                                   ; preds = %cleanup.action19, %ehcleanup17
  br label %eh.resume

if.end21:                                         ; preds = %do.body4
  br label %do.end22

do.end22:                                         ; preds = %if.end21
  %d_integers = getelementptr inbounds %"class.cvc5::internal::LogicInfo", ptr %this1, i32 0, i32 3
  %13 = load i8, ptr %d_integers, align 8
  %tobool23 = trunc i8 %13 to i1
  ret i1 %tobool23

eh.resume:                                        ; preds = %cleanup.done20, %cleanup.done
  %exn = load ptr, ptr %exn.slot, align 8
  %sel = load i32, ptr %ehselector.slot, align 4
  %lpad.val = insertvalue { ptr, i32 } poison, ptr %exn, 0
  %lpad.val24 = insertvalue { ptr, i32 } %lpad.val, i32 %sel, 1
  resume { ptr, i32 } %lpad.val24

unreachable:                                      ; preds = %invoke.cont14, %invoke.cont3
  unreachable
}